target datalayout = "e-m:e-p270:32:32-p271:32:32-p272:64:64-i64:64-i128:128-f80:128-n8:16:32:64-S128"
target triple = "x86_64-unknown-linux-gnu"

%"class.std::set.0" = type { %"class.std::_Rb_tree.1" }
%"class.std::_Rb_tree.1" = type { %"struct.std::_Rb_tree<QuantLib::Observer *, QuantLib::Observer *, std::_Identity<QuantLib::Observer *>, std::less<QuantLib::Observer *>>::_Rb_tree_impl" }
%"struct.std::_Rb_tree<QuantLib::Observer *, QuantLib::Observer *, std::_Identity<QuantLib::Observer *>, std::less<QuantLib::Observer *>>::_Rb_tree_impl" = type { [8 x i8], %"struct.std::_Rb_tree_header" }
%"struct.std::_Rb_tree_header" = type { %"struct.std::_Rb_tree_node_base", i64 }
%"struct.std::_Rb_tree_node_base" = type { i32, ptr, ptr, ptr }
%"class.std::set" = type { %"class.std::_Rb_tree" }
%"class.std::_Rb_tree" = type { %"struct.std::_Rb_tree<boost::shared_ptr<QuantLib::Observable>, boost::shared_ptr<QuantLib::Observable>, std::_Identity<boost::shared_ptr<QuantLib::Observable>>, std::less<boost::shared_ptr<QuantLib::Observable>>>::_Rb_tree_impl" }
%"struct.std::_Rb_tree<boost::shared_ptr<QuantLib::Observable>, boost::shared_ptr<QuantLib::Observable>, std::_Identity<boost::shared_ptr<QuantLib::Observable>>, std::less<boost::shared_ptr<QuantLib::Observable>>>::_Rb_tree_impl" = type { [8 x i8], %"struct.std::_Rb_tree_header" }
%"class.boost::detail::shared_count" = type { ptr }
%"class.QuantLib::Observable" = type { ptr, %"class.std::set.0" }
%"class.QuantLib::StochasticProcess" = type { %"class.QuantLib::Observer", %"class.QuantLib::Observable", %"class.boost::shared_ptr.6" }
%"class.QuantLib::Observer" = type { ptr, %"class.std::set" }
%"class.boost::shared_ptr.6" = type { ptr, %"class.boost::detail::shared_count" }
%"class.boost::shared_ptr.8" = type { ptr, %"class.boost::detail::shared_count" }
%"class.QuantLib::G2ForwardProcess" = type { %"class.QuantLib::ForwardMeasureProcess", double, double, double, double, double, double, double, %"class.boost::shared_ptr.8", %"class.boost::shared_ptr.8" }
%"class.QuantLib::ForwardMeasureProcess" = type { %"class.QuantLib::StochasticProcess", double }

; Function Attrs: mustprogress nounwind uwtable
define noundef double @_ZNK8QuantLib16G2ForwardProcess13xForwardDriftEdd(ptr noundef nonnull align 8 dereferenceable(224) %this, double noundef %t, double noundef %T) #1 align 2 {
entry:
  %this.addr = alloca ptr, align 8
  %t.addr = alloca double, align 8
  %T.addr = alloca double, align 8
  %expatT = alloca double, align 8
  %expbtT = alloca double, align 8
  store ptr %this, ptr %this.addr, align 8, !tbaa !3
  store double %t, ptr %t.addr, align 8, !tbaa !12
  store double %T, ptr %T.addr, align 8, !tbaa !12
  %this1 = load ptr, ptr %this.addr, align 8
  call void @llvm.lifetime.start.p0(i64 8, ptr %expatT) #13
  %a_ = getelementptr inbounds nuw %"class.QuantLib::G2ForwardProcess", ptr %this1, i32 0, i32 3
  %0 = load double, ptr %a_, align 8, !tbaa !68
  %fneg = fneg double %0
  %1 = load double, ptr %T.addr, align 8, !tbaa !12
  %2 = load double, ptr %t.addr, align 8, !tbaa !12
  %sub = fsub double %1, %2
  %mul = fmul double %fneg, %sub
  %call = call double @exp(double noundef %mul) #13, !tbaa !48
  store double %call, ptr %expatT, align 8, !tbaa !12
  call void @llvm.lifetime.start.p0(i64 8, ptr %expbtT) #13
  %b_ = getelementptr inbounds nuw %"class.QuantLib::G2ForwardProcess", ptr %this1, i32 0, i32 5
  %3 = load double, ptr %b_, align 8, !tbaa !70
  %fneg2 = fneg double %3
  %4 = load double, ptr %T.addr, align 8, !tbaa !12
  %5 = load double, ptr %t.addr, align 8, !tbaa !12
  %sub3 = fsub double %4, %5
  %mul4 = fmul double %fneg2, %sub3
  %call5 = call double @exp(double noundef %mul4) #13, !tbaa !48
  store double %call5, ptr %expbtT, align 8, !tbaa !12
  %sigma_ = getelementptr inbounds nuw %"class.QuantLib::G2ForwardProcess", ptr %this1, i32 0, i32 4
  %6 = load double, ptr %sigma_, align 8, !tbaa !69
  %sigma_6 = getelementptr inbounds nuw %"class.QuantLib::G2ForwardProcess", ptr %this1, i32 0, i32 4
  %7 = load double, ptr %sigma_6, align 8, !tbaa !69
  %mul7 = fmul double %6, %7
  %a_8 = getelementptr inbounds nuw %"class.QuantLib::G2ForwardProcess", ptr %this1, i32 0, i32 3
  %8 = load double, ptr %a_8, align 8, !tbaa !68
  %div = fdiv double %mul7, %8
  %fneg9 = fneg double %div
  %9 = load double, ptr %expatT, align 8, !tbaa !12
  %sub10 = fsub double 1.000000e+00, %9
  %rho_ = getelementptr inbounds nuw %"class.QuantLib::G2ForwardProcess", ptr %this1, i32 0, i32 7
  %10 = load double, ptr %rho_, align 8, !tbaa !72
  %sigma_12 = getelementptr inbounds nuw %"class.QuantLib::G2ForwardProcess", ptr %this1, i32 0, i32 4
  %11 = load double, ptr %sigma_12, align 8, !tbaa !69
  %mul13 = fmul double %10, %11
  %eta_ = getelementptr inbounds nuw %"class.QuantLib::G2ForwardProcess", ptr %this1, i32 0, i32 6
  %12 = load double, ptr %eta_, align 8, !tbaa !71
  %mul14 = fmul double %mul13, %12
  %b_15 = getelementptr inbounds nuw %"class.QuantLib::G2ForwardProcess", ptr %this1, i32 0, i32 5
  %13 = load double, ptr %b_15, align 8, !tbaa !70
  %div16 = fdiv double %mul14, %13
  %14 = load double, ptr %expbtT, align 8, !tbaa !12
  %sub17 = fsub double 1.000000e+00, %14
  %mul18 = fmul double %div16, %sub17
  %neg = fneg double %mul18
  %15 = call double @llvm.fmuladd.f64(double %fneg9, double %sub10, double %neg)
  call void @llvm.lifetime.end.p0(i64 8, ptr %expbtT) #13
  call void @llvm.lifetime.end.p0(i64 8, ptr %expatT) #13
  ret double %15
}